target datalayout = "e-m:e-p270:32:32-p271:32:32-p272:64:64-i64:64-i128:128-f80:128-n8:16:32:64-S128"
target triple = "x86_64-pc-linux-gnu"

%struct.Ssw_Cla_t_ = type { ptr, ptr, ptr, i32, i32, i32, i32, ptr, ptr, ptr, ptr, ptr, ptr, ptr, ptr, ptr }
%struct.Aig_Man_t_ = type { ptr, ptr, ptr, ptr, ptr, ptr, ptr, %struct.Aig_Obj_t_, i32, i32, i32, i32, i32, i32, [7 x i32], i32, ptr, i32, ptr, i32, ptr, i32, i32, i32, ptr, i32, i32, i32, i32, i32, ptr, ptr, i32, ptr, ptr, i32, ptr, ptr, i32, i32, i32, ptr, ptr, ptr, ptr, ptr, ptr, ptr, ptr, ptr, ptr, ptr, ptr, ptr, ptr, i32, ptr, ptr, ptr, ptr, i32, i64, i64, i64, ptr, ptr }
%struct.Aig_Obj_t_ = type { %union.anon, ptr, ptr, i64, i32, i32, %union.anon.0 }
%union.anon = type { ptr }
%union.anon.0 = type { ptr }
%struct.Vec_Ptr_t_ = type { i32, i32, ptr }

@.str.1 = private unnamed_addr constant [14 x i8] c"%d(%d,%d,%d) \00", align 1
@.str.2 = private unnamed_addr constant [3 x i8] c"}\0A\00", align 1
@.str.3 = private unnamed_addr constant [54 x i8] c"Equiv classes: Const1 = %5d. Class = %5d. Lit = %5d.\0A\00", align 1
@.str.4 = private unnamed_addr constant [13 x i8] c"Constants { \00", align 1
@.str.5 = private unnamed_addr constant [13 x i8] c"%3d (%3d) : \00", align 1
@.str.6 = private unnamed_addr constant [2 x i8] c"\0A\00", align 1

; Function Attrs: inlinehint nounwind uwtable
define internal ptr @Aig_ManConst1(ptr noundef %0) #5 {
  %2 = alloca ptr, align 8
  store ptr %0, ptr %2, align 8, !tbaa !3
  %3 = load ptr, ptr %2, align 8, !tbaa !3
  %4 = getelementptr inbounds nuw %struct.Aig_Man_t_, ptr %3, i32 0, i32 6
  %5 = load ptr, ptr %4, align 8, !tbaa !109
  ret ptr %5
}

; Function Attrs: inlinehint nounwind uwtable
define internal ptr @Aig_ObjRepr(ptr noundef %0, ptr noundef %1) #5 {
  %3 = alloca ptr, align 8
  %4 = alloca ptr, align 8
  store ptr %0, ptr %3, align 8, !tbaa !3
  store ptr %1, ptr %4, align 8, !tbaa !48
  %5 = load ptr, ptr %3, align 8, !tbaa !3
  %6 = getelementptr inbounds nuw %struct.Aig_Man_t_, ptr %5, i32 0, i32 31
  %7 = load ptr, ptr %6, align 8, !tbaa !22
  %8 = icmp ne ptr %7, null
  br i1 %8, label %9, label %19

9:                                                ; preds = %2
  %10 = load ptr, ptr %3, align 8, !tbaa !3
  %11 = getelementptr inbounds nuw %struct.Aig_Man_t_, ptr %10, i32 0, i32 31
  %12 = load ptr, ptr %11, align 8, !tbaa !22
  %13 = load ptr, ptr %4, align 8, !tbaa !48
  %14 = getelementptr inbounds nuw %struct.Aig_Obj_t_, ptr %13, i32 0, i32 5
  %15 = load i32, ptr %14, align 4, !tbaa !50
  %16 = sext i32 %15 to i64
  %17 = getelementptr inbounds ptr, ptr %12, i64 %16
  %18 = load ptr, ptr %17, align 8, !tbaa !48
  br label %20

19:                                               ; preds = %2
  br label %20

20:                                               ; preds = %19, %9
  %21 = phi ptr [ %18, %9 ], [ null, %19 ]
  ret ptr %21
}

; Function Attrs: inlinehint nounwind uwtable
define internal i32 @Aig_ManObjNumMax(ptr noundef %0) #5 {
  %2 = alloca ptr, align 8
  store ptr %0, ptr %2, align 8, !tbaa !3
  %3 = load ptr, ptr %2, align 8, !tbaa !3
  %4 = getelementptr inbounds nuw %struct.Aig_Man_t_, ptr %3, i32 0, i32 4
  %5 = load ptr, ptr %4, align 8, !tbaa !32
  %6 = call i32 @Vec_PtrSize(ptr noundef %5)
  ret i32 %6
}

; Function Attrs: inlinehint nounwind uwtable
define internal i32 @Ssw_ObjIsConst1Cand(ptr noundef %0, ptr noundef %1) #5 {
  %3 = alloca ptr, align 8
  %4 = alloca ptr, align 8
  store ptr %0, ptr %3, align 8, !tbaa !3
  store ptr %1, ptr %4, align 8, !tbaa !48
  %5 = load ptr, ptr %3, align 8, !tbaa !3
  %6 = load ptr, ptr %4, align 8, !tbaa !48
  %7 = call ptr @Aig_ObjRepr(ptr noundef %5, ptr noundef %6)
  %8 = load ptr, ptr %3, align 8, !tbaa !3
  %9 = call ptr @Aig_ManConst1(ptr noundef %8)
  %10 = icmp eq ptr %7, %9
  %11 = zext i1 %10 to i32
  ret i32 %11
}

; Function Attrs: inlinehint nounwind uwtable
define internal ptr @Vec_PtrEntry(ptr noundef %0, i32 noundef %1) #5 {
  %3 = alloca ptr, align 8
  %4 = alloca i32, align 4
  store ptr %0, ptr %3, align 8, !tbaa !34
  store i32 %1, ptr %4, align 4, !tbaa !33
  %5 = load ptr, ptr %3, align 8, !tbaa !34
  %6 = getelementptr inbounds nuw %struct.Vec_Ptr_t_, ptr %5, i32 0, i32 2
  %7 = load ptr, ptr %6, align 8, !tbaa !38
  %8 = load i32, ptr %4, align 4, !tbaa !33
  %9 = sext i32 %8 to i64
  %10 = getelementptr inbounds ptr, ptr %7, i64 %9
  %11 = load ptr, ptr %10, align 8, !tbaa !39
  ret ptr %11
}

; Function Attrs: inlinehint nounwind uwtable
define internal i32 @Vec_PtrSize(ptr noundef %0) #5 {
  %2 = alloca ptr, align 8
  store ptr %0, ptr %2, align 8, !tbaa !34
  %3 = load ptr, ptr %2, align 8, !tbaa !34
  %4 = getelementptr inbounds nuw %struct.Vec_Ptr_t_, ptr %3, i32 0, i32 1
  %5 = load i32, ptr %4, align 4, !tbaa !35
  ret i32 %5
}

; Function Attrs: nounwind uwtable
define void @Ssw_ClassesPrint(ptr noundef %0, i32 noundef %1) #0 {
  %3 = alloca ptr, align 8
  %4 = alloca i32, align 4
  %5 = alloca ptr, align 8
  %6 = alloca ptr, align 8
  %7 = alloca i32, align 4
  %8 = alloca i32, align 4
  store ptr %0, ptr %3, align 8, !tbaa !8
  store i32 %1, ptr %4, align 4, !tbaa !33
  call void @llvm.lifetime.start.p0(i64 8, ptr %5) #11
  call void @llvm.lifetime.start.p0(i64 8, ptr %6) #11
  call void @llvm.lifetime.start.p0(i64 4, ptr %7) #11
  %9 = load ptr, ptr %3, align 8, !tbaa !8
  %10 = getelementptr inbounds nuw %struct.Ssw_Cla_t_, ptr %9, i32 0, i32 5
  %11 = load i32, ptr %10, align 8, !tbaa !45
  %12 = load ptr, ptr %3, align 8, !tbaa !8
  %13 = getelementptr inbounds nuw %struct.Ssw_Cla_t_, ptr %12, i32 0, i32 4
  %14 = load i32, ptr %13, align 4, !tbaa !46
  %15 = load ptr, ptr %3, align 8, !tbaa !8
  %16 = getelementptr inbounds nuw %struct.Ssw_Cla_t_, ptr %15, i32 0, i32 5
  %17 = load i32, ptr %16, align 8, !tbaa !45
  %18 = load ptr, ptr %3, align 8, !tbaa !8
  %19 = getelementptr inbounds nuw %struct.Ssw_Cla_t_, ptr %18, i32 0, i32 6
  %20 = load i32, ptr %19, align 4, !tbaa !47
  %21 = add nsw i32 %17, %20
  call void (i32, ptr, ...) @Abc_Print(i32 noundef 1, ptr noundef @.str.3, i32 noundef %11, i32 noundef %14, i32 noundef %21)
  %22 = load i32, ptr %4, align 4, !tbaa !33
  %23 = icmp ne i32 %22, 0
  br i1 %23, label %25, label %24

24:                                               ; preds = %2
  store i32 1, ptr %8, align 4
  br label %117

25:                                               ; preds = %2
  call void (i32, ptr, ...) @Abc_Print(i32 noundef 1, ptr noundef @.str.4)
  store i32 0, ptr %7, align 4, !tbaa !33
  br label %26

26:                                               ; preds = %78, %25
  %27 = load i32, ptr %7, align 4, !tbaa !33
  %28 = load ptr, ptr %3, align 8, !tbaa !8
  %29 = getelementptr inbounds nuw %struct.Ssw_Cla_t_, ptr %28, i32 0, i32 0
  %30 = load ptr, ptr %29, align 8, !tbaa !10
  %31 = getelementptr inbounds nuw %struct.Aig_Man_t_, ptr %30, i32 0, i32 4
  %32 = load ptr, ptr %31, align 8, !tbaa !32
  %33 = call i32 @Vec_PtrSize(ptr noundef %32)
  %34 = icmp slt i32 %27, %33
  br i1 %34, label %35, label %43

35:                                               ; preds = %26
  %36 = load ptr, ptr %3, align 8, !tbaa !8
  %37 = getelementptr inbounds nuw %struct.Ssw_Cla_t_, ptr %36, i32 0, i32 0
  %38 = load ptr, ptr %37, align 8, !tbaa !10
  %39 = getelementptr inbounds nuw %struct.Aig_Man_t_, ptr %38, i32 0, i32 4
  %40 = load ptr, ptr %39, align 8, !tbaa !32
  %41 = load i32, ptr %7, align 4, !tbaa !33
  %42 = call ptr @Vec_PtrEntry(ptr noundef %40, i32 noundef %41)
  store ptr %42, ptr %6, align 8, !tbaa !48
  br label %43

43:                                               ; preds = %35, %26
  %44 = phi i1 [ false, %26 ], [ true, %35 ]
  br i1 %44, label %45, label %81

45:                                               ; preds = %43
  %46 = load ptr, ptr %6, align 8, !tbaa !48
  %47 = icmp eq ptr %46, null
  br i1 %47, label %48, label %49

48:                                               ; preds = %45
  br label %77

49:                                               ; preds = %45
  %50 = load ptr, ptr %3, align 8, !tbaa !8
  %51 = getelementptr inbounds nuw %struct.Ssw_Cla_t_, ptr %50, i32 0, i32 0
  %52 = load ptr, ptr %51, align 8, !tbaa !10
  %53 = load ptr, ptr %6, align 8, !tbaa !48
  %54 = call i32 @Ssw_ObjIsConst1Cand(ptr noundef %52, ptr noundef %53)
  %55 = icmp ne i32 %54, 0
  br i1 %55, label %56, label %76

56:                                               ; preds = %49
  %57 = load ptr, ptr %6, align 8, !tbaa !48
  %58 = getelementptr inbounds nuw %struct.Aig_Obj_t_, ptr %57, i32 0, i32 5
  %59 = load i32, ptr %58, align 4, !tbaa !50
  %60 = load ptr, ptr %6, align 8, !tbaa !48
  %61 = getelementptr inbounds nuw %struct.Aig_Obj_t_, ptr %60, i32 0, i32 3
  %62 = load i64, ptr %61, align 8
  %63 = lshr i64 %62, 32
  %64 = and i64 %63, 16777215
  %65 = trunc i64 %64 to i32
  %66 = load ptr, ptr %3, align 8, !tbaa !8
  %67 = getelementptr inbounds nuw %struct.Ssw_Cla_t_, ptr %66, i32 0, i32 0
  %68 = load ptr, ptr %67, align 8, !tbaa !10
  %69 = load ptr, ptr %6, align 8, !tbaa !48
  %70 = call i32 @Aig_SupportSize(ptr noundef %68, ptr noundef %69)
  %71 = load ptr, ptr %3, align 8, !tbaa !8
  %72 = getelementptr inbounds nuw %struct.Ssw_Cla_t_, ptr %71, i32 0, i32 0
  %73 = load ptr, ptr %72, align 8, !tbaa !10
  %74 = load ptr, ptr %6, align 8, !tbaa !48
  %75 = call i32 @Aig_NodeMffcSupp(ptr noundef %73, ptr noundef %74, i32 noundef 0, ptr noundef null)
  call void (i32, ptr, ...) @Abc_Print(i32 noundef 1, ptr noundef @.str.1, i32 noundef %59, i32 noundef %65, i32 noundef %70, i32 noundef %75)
  br label %76

76:                                               ; preds = %56, %49
  br label %77

77:                                               ; preds = %76, %48
  br label %78

78:                                               ; preds = %77
  %79 = load i32, ptr %7, align 4, !tbaa !33
  %80 = add nsw i32 %79, 1
  store i32 %80, ptr %7, align 4, !tbaa !33
  br label %26, !llvm.loop !61

81:                                               ; preds = %43
  call void (i32, ptr, ...) @Abc_Print(i32 noundef 1, ptr noundef @.str.2)
  store i32 0, ptr %7, align 4, !tbaa !33
  br label %82

82:                                               ; preds = %113, %81
  %83 = load i32, ptr %7, align 4, !tbaa !33
  %84 = load ptr, ptr %3, align 8, !tbaa !8
  %85 = getelementptr inbounds nuw %struct.Ssw_Cla_t_, ptr %84, i32 0, i32 0
  %86 = load ptr, ptr %85, align 8, !tbaa !10
  %87 = call i32 @Aig_ManObjNumMax(ptr noundef %86)
  %88 = icmp slt i32 %83, %87
  br i1 %88, label %89, label %116

89:                                               ; preds = %82
  %90 = load ptr, ptr %3, align 8, !tbaa !8
  %91 = getelementptr inbounds nuw %struct.Ssw_Cla_t_, ptr %90, i32 0, i32 1
  %92 = load ptr, ptr %91, align 8, !tbaa !17
  %93 = load i32, ptr %7, align 4, !tbaa !33
  %94 = sext i32 %93 to i64
  %95 = getelementptr inbounds ptr, ptr %92, i64 %94
  %96 = load ptr, ptr %95, align 8, !tbaa !51
  store ptr %96, ptr %5, align 8, !tbaa !51
  %97 = icmp eq ptr %96, null
  br i1 %97, label %98, label %99

98:                                               ; preds = %89
  br label %112

99:                                               ; preds = %89
  %100 = load i32, ptr %7, align 4, !tbaa !33
  %101 = load ptr, ptr %3, align 8, !tbaa !8
  %102 = getelementptr inbounds nuw %struct.Ssw_Cla_t_, ptr %101, i32 0, i32 2
  %103 = load ptr, ptr %102, align 8, !tbaa !18
  %104 = load i32, ptr %7, align 4, !tbaa !33
  %105 = sext i32 %104 to i64
  %106 = getelementptr inbounds i32, ptr %103, i64 %105
  %107 = load i32, ptr %106, align 4, !tbaa !33
  call void (i32, ptr, ...) @Abc_Print(i32 noundef 1, ptr noundef @.str.5, i32 noundef %100, i32 noundef %107)
  %108 = load ptr, ptr %3, align 8, !tbaa !8
  %109 = load ptr, ptr %5, align 8, !tbaa !51
  %110 = getelementptr inbounds ptr, ptr %109, i64 0
  %111 = load ptr, ptr %110, align 8, !tbaa !48
  call void @Ssw_ClassesPrintOne(ptr noundef %108, ptr noundef %111)
  br label %112

112:                                              ; preds = %99, %98
  br label %113

113:                                              ; preds = %112
  %114 = load i32, ptr %7, align 4, !tbaa !33
  %115 = add nsw i32 %114, 1
  store i32 %115, ptr %7, align 4, !tbaa !33
  br label %82, !llvm.loop !62

116:                                              ; preds = %82
  call void (i32, ptr, ...) @Abc_Print(i32 noundef 1, ptr noundef @.str.6)
  store i32 0, ptr %8, align 4
  br label %117

117:                                              ; preds = %116, %24
  call void @llvm.lifetime.end.p0(i64 4, ptr %7) #11
  call void @llvm.lifetime.end.p0(i64 8, ptr %6) #11
  call void @llvm.lifetime.end.p0(i64 8, ptr %5) #11
  %118 = load i32, ptr %8, align 4
  switch i32 %118, label %120 [
    i32 0, label %119
    i32 1, label %119
  ]

119:                                              ; preds = %117, %117
  ret void

120:                                              ; preds = %117
  unreachable
}