; Function Attrs: nounwind uwtable
define void @Ssw_ClassesPrint(ptr noundef readonly captures(none) %0, i32 noundef %1) local_unnamed_addr #0 {
  %3 = getelementptr inbounds nuw i8, ptr %0, i64 32
  %4 = load i32, ptr %3, align 8, !tbaa !39
  %5 = getelementptr inbounds nuw i8, ptr %0, i64 28
  %6 = load i32, ptr %5, align 4, !tbaa !40
  %7 = getelementptr inbounds nuw i8, ptr %0, i64 36
  %8 = load i32, ptr %7, align 4, !tbaa !41
  %9 = add nsw i32 %8, %4
  tail call void (i32, ptr, ...) @Abc_Print(i32 poison, ptr noundef nonnull @.str.3, i32 noundef %4, i32 noundef %6, i32 noundef %9)
  %.not = icmp eq i32 %1, 0
  br i1 %.not, label %74, label %10

10:                                               ; preds = %2
  tail call void (i32, ptr, ...) @Abc_Print(i32 poison, ptr noundef nonnull @.str.4)
  %11 = load ptr, ptr %0, align 8, !tbaa !3
  %12 = getelementptr inbounds nuw i8, ptr %11, i64 32
  %13 = load ptr, ptr %12, align 8, !tbaa !14
  %14 = getelementptr i8, ptr %13, i64 4
  %.val34 = load i32, ptr %14, align 4, !tbaa !24
  %15 = icmp sgt i32 %.val34, 0
  br i1 %15, label %.lr.ph, label %.critedge

.lr.ph:                                           ; preds = %10, %43
  %16 = phi ptr [ %44, %43 ], [ %11, %10 ]
  %indvars.iv = phi i64 [ %indvars.iv.next, %43 ], [ 0, %10 ]
  %17 = phi ptr [ %46, %43 ], [ %13, %10 ]
  %18 = getelementptr i8, ptr %17, i64 8
  %.val32 = load ptr, ptr %18, align 8, !tbaa !29
  %19 = getelementptr inbounds nuw ptr, ptr %.val32, i64 %indvars.iv
  %20 = load ptr, ptr %19, align 8, !tbaa !46
  %21 = icmp eq ptr %20, null
  br i1 %21, label %43, label %22

22:                                               ; preds = %.lr.ph
  %23 = getelementptr i8, ptr %16, i64 256
  %.val.i = load ptr, ptr %23, align 8, !tbaa !33
  %.not.i.i = icmp eq ptr %.val.i, null
  br i1 %.not.i.i, label %Ssw_ObjIsConst1Cand.exit, label %24

24:                                               ; preds = %22
  %25 = getelementptr inbounds nuw i8, ptr %20, i64 36
  %26 = load i32, ptr %25, align 4, !tbaa !42
  %27 = sext i32 %26 to i64
  %28 = getelementptr inbounds ptr, ptr %.val.i, i64 %27
  %29 = load ptr, ptr %28, align 8, !tbaa !45
  br label %Ssw_ObjIsConst1Cand.exit

Ssw_ObjIsConst1Cand.exit:                         ; preds = %22, %24
  %30 = phi ptr [ %29, %24 ], [ null, %22 ]
  %31 = getelementptr i8, ptr %16, i64 48
  %.val3.i = load ptr, ptr %31, align 8, !tbaa !55
  %.not33 = icmp eq ptr %30, %.val3.i
  br i1 %.not33, label %32, label %43

32:                                               ; preds = %Ssw_ObjIsConst1Cand.exit
  %33 = getelementptr inbounds nuw i8, ptr %20, i64 36
  %34 = load i32, ptr %33, align 4, !tbaa !42
  %35 = getelementptr inbounds nuw i8, ptr %20, i64 24
  %36 = load i64, ptr %35, align 8
  %37 = lshr i64 %36, 32
  %38 = trunc nuw i64 %37 to i32
  %39 = and i32 %38, 16777215
  %40 = tail call i32 @Aig_SupportSize(ptr noundef nonnull %16, ptr noundef nonnull %20) #23
  %41 = load ptr, ptr %0, align 8, !tbaa !3
  %42 = tail call i32 @Aig_NodeMffcSupp(ptr noundef %41, ptr noundef nonnull %20, i32 noundef 0, ptr noundef null) #23
  tail call void (i32, ptr, ...) @Abc_Print(i32 poison, ptr noundef nonnull @.str.1, i32 noundef %34, i32 noundef %39, i32 noundef %40, i32 noundef %42)
  %.pre = load ptr, ptr %0, align 8, !tbaa !3
  br label %43

43:                                               ; preds = %.lr.ph, %32, %Ssw_ObjIsConst1Cand.exit
  %44 = phi ptr [ %16, %.lr.ph ], [ %.pre, %32 ], [ %16, %Ssw_ObjIsConst1Cand.exit ]
  %indvars.iv.next = add nuw nsw i64 %indvars.iv, 1
  %45 = getelementptr inbounds nuw i8, ptr %44, i64 32
  %46 = load ptr, ptr %45, align 8, !tbaa !14
  %47 = getelementptr i8, ptr %46, i64 4
  %.val = load i32, ptr %47, align 4, !tbaa !24
  %48 = sext i32 %.val to i64
  %49 = icmp slt i64 %indvars.iv.next, %48
  br i1 %49, label %.lr.ph, label %.critedge, !llvm.loop !56

.critedge:                                        ; preds = %43, %10
  tail call void (i32, ptr, ...) @Abc_Print(i32 poison, ptr noundef nonnull @.str.2)
  %50 = load ptr, ptr %0, align 8, !tbaa !3
  %51 = getelementptr i8, ptr %50, i64 32
  %.val3136 = load ptr, ptr %51, align 8, !tbaa !14
  %52 = getelementptr i8, ptr %.val3136, i64 4
  %.val31.val37 = load i32, ptr %52, align 4, !tbaa !24
  %53 = icmp sgt i32 %.val31.val37, 0
  br i1 %53, label %.lr.ph39, label %._crit_edge

.lr.ph39:                                         ; preds = %.critedge
  %54 = getelementptr inbounds nuw i8, ptr %0, i64 8
  %55 = getelementptr inbounds nuw i8, ptr %0, i64 16
  br label %56

56:                                               ; preds = %.lr.ph39, %68
  %57 = phi ptr [ %50, %.lr.ph39 ], [ %69, %68 ]
  %indvars.iv41 = phi i64 [ 0, %.lr.ph39 ], [ %indvars.iv.next42, %68 ]
  %58 = load ptr, ptr %54, align 8, !tbaa !26
  %59 = getelementptr inbounds nuw ptr, ptr %58, i64 %indvars.iv41
  %60 = load ptr, ptr %59, align 8, !tbaa !43
  %61 = icmp eq ptr %60, null
  br i1 %61, label %68, label %62

62:                                               ; preds = %56
  %63 = load ptr, ptr %55, align 8, !tbaa !27
  %64 = getelementptr inbounds nuw i32, ptr %63, i64 %indvars.iv41
  %65 = load i32, ptr %64, align 4, !tbaa !44
  %66 = trunc nuw nsw i64 %indvars.iv41 to i32
  tail call void (i32, ptr, ...) @Abc_Print(i32 poison, ptr noundef nonnull @.str.5, i32 noundef %66, i32 noundef %65)
  %67 = load ptr, ptr %60, align 8, !tbaa !45
  tail call void @Ssw_ClassesPrintOne(ptr noundef nonnull %0, ptr noundef %67)
  %.pre44 = load ptr, ptr %0, align 8, !tbaa !3
  br label %68

68:                                               ; preds = %62, %56
  %69 = phi ptr [ %.pre44, %62 ], [ %57, %56 ]
  %indvars.iv.next42 = add nuw nsw i64 %indvars.iv41, 1
  %70 = getelementptr i8, ptr %69, i64 32
  %.val31 = load ptr, ptr %70, align 8, !tbaa !14
  %71 = getelementptr i8, ptr %.val31, i64 4
  %.val31.val = load i32, ptr %71, align 4, !tbaa !24
  %72 = sext i32 %.val31.val to i64
  %73 = icmp slt i64 %indvars.iv.next42, %72
  br i1 %73, label %56, label %._crit_edge, !llvm.loop !57

._crit_edge:                                      ; preds = %68, %.critedge
  tail call void (i32, ptr, ...) @Abc_Print(i32 poison, ptr noundef nonnull @.str.6)
  br label %74

74:                                               ; preds = %2, %._crit_edge
  ret void
}